target datalayout = "e-m:e-p270:32:32-p271:32:32-p272:64:64-i64:64-i128:128-f80:128-n8:16:32:64-S128"
target triple = "x86_64-pc-linux-gnu"

%"class.std::__1::error_condition" = type { i32, ptr }
%"class.std::__1::error_code" = type { i32, ptr }

$_ZNSt3__115error_conditionC2B8ne210000EiRKNS_14error_categoryE = comdat any

$_ZNSt3__1eqB8ne210000ERKNS_15error_conditionES2_ = comdat any

$_ZNKSt3__114error_categoryeqB8ne210000ERKS0_ = comdat any

$_ZNKSt3__110error_code8categoryB8ne210000Ev = comdat any

$_ZNKSt3__110error_code5valueB8ne210000Ev = comdat any

$_ZNKSt3__115error_condition8categoryB8ne210000Ev = comdat any

$_ZNKSt3__115error_condition5valueB8ne210000Ev = comdat any

@_ZTVNSt3__114error_categoryE = dso_local unnamed_addr constant { [9 x ptr] } { [9 x ptr] [ptr null, ptr @_ZTINSt3__114error_categoryE, ptr @_ZNSt3__114error_categoryD1Ev, ptr @_ZNSt3__114error_categoryD0Ev, ptr @__cxa_pure_virtual, ptr @_ZNKSt3__114error_category23default_error_conditionEi, ptr @_ZNKSt3__114error_category10equivalentEiRKNS_15error_conditionE, ptr @_ZNKSt3__114error_category10equivalentERKNS_10error_codeEi, ptr @__cxa_pure_virtual] }, align 8
@_ZTINSt3__114error_categoryE = dso_local constant { ptr, ptr } { ptr getelementptr inbounds (ptr, ptr @_ZTVN10__cxxabiv117__class_type_infoE, i64 2), ptr @_ZTSNSt3__114error_categoryE }, align 8
@_ZTVN10__cxxabiv117__class_type_infoE = external global [0 x ptr]
@_ZTSNSt3__114error_categoryE = dso_local constant [25 x i8] c"NSt3__114error_categoryE\00", align 1

@_ZNSt3__114error_categoryD1Ev = dso_local unnamed_addr alias void (ptr), ptr @_ZNSt3__114error_categoryD2Ev

; Function Attrs: mustprogress nounwind uwtable
define dso_local void @_ZNSt3__114error_categoryC2Ev(ptr noundef nonnull align 8 dereferenceable(8) %0) unnamed_addr #0 align 2 {
  %2 = alloca ptr, align 8
  store ptr %0, ptr %2, align 8, !tbaa !4
  %3 = load ptr, ptr %2, align 8
  store ptr getelementptr inbounds inrange(-16, 56) ({ [9 x ptr] }, ptr @_ZTVNSt3__114error_categoryE, i32 0, i32 0, i32 2), ptr %3, align 8, !tbaa !9
  ret void
}

; Function Attrs: mustprogress nounwind uwtable
define dso_local void @_ZNSt3__114error_categoryD2Ev(ptr noundef nonnull align 8 dereferenceable(8) %0) unnamed_addr #0 align 2 {
  %2 = alloca ptr, align 8
  store ptr %0, ptr %2, align 8, !tbaa !4
  ret void
}

; Function Attrs: mustprogress nounwind uwtable
define dso_local void @_ZNSt3__114error_categoryD0Ev(ptr noundef nonnull align 8 dereferenceable(8) %0) unnamed_addr #0 align 2 {
  %2 = alloca ptr, align 8
  store ptr %0, ptr %2, align 8, !tbaa !4
  call void @llvm.trap() #4
  unreachable
}

; Function Attrs: cold noreturn nounwind memory(inaccessiblemem: write)
declare void @llvm.trap() #1

; Function Attrs: mustprogress nounwind uwtable
define dso_local { i32, ptr } @_ZNKSt3__114error_category23default_error_conditionEi(ptr noundef nonnull align 8 dereferenceable(8) %0, i32 noundef %1) unnamed_addr #0 align 2 {
  %3 = alloca %"class.std::__1::error_condition", align 8
  %4 = alloca ptr, align 8
  %5 = alloca i32, align 4
  store ptr %0, ptr %4, align 8, !tbaa !4
  store i32 %1, ptr %5, align 4, !tbaa !11
  %6 = load ptr, ptr %4, align 8
  %7 = load i32, ptr %5, align 4, !tbaa !11
  call void @_ZNSt3__115error_conditionC2B8ne210000EiRKNS_14error_categoryE(ptr noundef nonnull align 8 dereferenceable(16) %3, i32 noundef %7, ptr noundef nonnull align 8 dereferenceable(8) %6) #5
  %8 = load { i32, ptr }, ptr %3, align 8
  ret { i32, ptr } %8
}

; Function Attrs: mustprogress nounwind uwtable
define linkonce_odr hidden void @_ZNSt3__115error_conditionC2B8ne210000EiRKNS_14error_categoryE(ptr noundef nonnull align 8 dereferenceable(16) %0, i32 noundef %1, ptr noundef nonnull align 8 dereferenceable(8) %2) unnamed_addr #0 comdat align 2 {
  %4 = alloca ptr, align 8
  %5 = alloca i32, align 4
  %6 = alloca ptr, align 8
  store ptr %0, ptr %4, align 8, !tbaa !13
  store i32 %1, ptr %5, align 4, !tbaa !11
  store ptr %2, ptr %6, align 8, !tbaa !4
  %7 = load ptr, ptr %4, align 8
  %8 = getelementptr inbounds nuw %"class.std::__1::error_condition", ptr %7, i32 0, i32 0
  %9 = load i32, ptr %5, align 4, !tbaa !11
  store i32 %9, ptr %8, align 8, !tbaa !15
  %10 = getelementptr inbounds nuw %"class.std::__1::error_condition", ptr %7, i32 0, i32 1
  %11 = load ptr, ptr %6, align 8, !tbaa !4
  store ptr %11, ptr %10, align 8, !tbaa !17
  ret void
}

; Function Attrs: mustprogress nounwind uwtable
define dso_local noundef zeroext i1 @_ZNKSt3__114error_category10equivalentEiRKNS_15error_conditionE(ptr noundef nonnull align 8 dereferenceable(8) %0, i32 noundef %1, ptr noundef nonnull align 8 dereferenceable(16) %2) unnamed_addr #0 align 2 {
  %4 = alloca ptr, align 8
  %5 = alloca i32, align 4
  %6 = alloca ptr, align 8
  %7 = alloca %"class.std::__1::error_condition", align 8
  store ptr %0, ptr %4, align 8, !tbaa !4
  store i32 %1, ptr %5, align 4, !tbaa !11
  store ptr %2, ptr %6, align 8, !tbaa !13
  %8 = load ptr, ptr %4, align 8
  call void @llvm.lifetime.start.p0(i64 16, ptr %7) #5
  %9 = load i32, ptr %5, align 4, !tbaa !11
  %10 = load ptr, ptr %8, align 8, !tbaa !9
  %11 = getelementptr inbounds ptr, ptr %10, i64 3
  %12 = load ptr, ptr %11, align 8
  %13 = call { i32, ptr } %12(ptr noundef nonnull align 8 dereferenceable(8) %8, i32 noundef %9) #5
  %14 = getelementptr inbounds nuw { i32, ptr }, ptr %7, i32 0, i32 0
  %15 = extractvalue { i32, ptr } %13, 0
  store i32 %15, ptr %14, align 8
  %16 = getelementptr inbounds nuw { i32, ptr }, ptr %7, i32 0, i32 1
  %17 = extractvalue { i32, ptr } %13, 1
  store ptr %17, ptr %16, align 8
  %18 = load ptr, ptr %6, align 8, !tbaa !13
  %19 = call noundef zeroext i1 @_ZNSt3__1eqB8ne210000ERKNS_15error_conditionES2_(ptr noundef nonnull align 8 dereferenceable(16) %7, ptr noundef nonnull align 8 dereferenceable(16) %18) #5
  call void @llvm.lifetime.end.p0(i64 16, ptr %7) #5
  ret i1 %19
}

; Function Attrs: inlinehint mustprogress nounwind uwtable
define linkonce_odr hidden noundef zeroext i1 @_ZNSt3__1eqB8ne210000ERKNS_15error_conditionES2_(ptr noundef nonnull align 8 dereferenceable(16) %0, ptr noundef nonnull align 8 dereferenceable(16) %1) #2 comdat {
  %3 = alloca ptr, align 8
  %4 = alloca ptr, align 8
  store ptr %0, ptr %3, align 8, !tbaa !13
  store ptr %1, ptr %4, align 8, !tbaa !13
  %5 = load ptr, ptr %3, align 8, !tbaa !13
  %6 = call noundef nonnull align 8 dereferenceable(8) ptr @_ZNKSt3__115error_condition8categoryB8ne210000Ev(ptr noundef nonnull align 8 dereferenceable(16) %5) #5
  %7 = load ptr, ptr %4, align 8, !tbaa !13
  %8 = call noundef nonnull align 8 dereferenceable(8) ptr @_ZNKSt3__115error_condition8categoryB8ne210000Ev(ptr noundef nonnull align 8 dereferenceable(16) %7) #5
  %9 = call noundef zeroext i1 @_ZNKSt3__114error_categoryeqB8ne210000ERKS0_(ptr noundef nonnull align 8 dereferenceable(8) %6, ptr noundef nonnull align 8 dereferenceable(8) %8) #5
  br i1 %9, label %10, label %16

10:                                               ; preds = %2
  %11 = load ptr, ptr %3, align 8, !tbaa !13
  %12 = call noundef i32 @_ZNKSt3__115error_condition5valueB8ne210000Ev(ptr noundef nonnull align 8 dereferenceable(16) %11) #5
  %13 = load ptr, ptr %4, align 8, !tbaa !13
  %14 = call noundef i32 @_ZNKSt3__115error_condition5valueB8ne210000Ev(ptr noundef nonnull align 8 dereferenceable(16) %13) #5
  %15 = icmp eq i32 %12, %14
  br label %16

16:                                               ; preds = %10, %2
  %17 = phi i1 [ false, %2 ], [ %15, %10 ]
  ret i1 %17
}

; Function Attrs: nocallback nofree nosync nounwind willreturn memory(argmem: readwrite)
declare void @llvm.lifetime.start.p0(i64 immarg, ptr captures(none)) #3

; Function Attrs: nocallback nofree nosync nounwind willreturn memory(argmem: readwrite)
declare void @llvm.lifetime.end.p0(i64 immarg, ptr captures(none)) #3

; Function Attrs: mustprogress nounwind uwtable
define dso_local noundef zeroext i1 @_ZNKSt3__114error_category10equivalentERKNS_10error_codeEi(ptr noundef nonnull align 8 dereferenceable(8) %0, ptr noundef nonnull align 8 dereferenceable(16) %1, i32 noundef %2) unnamed_addr #0 align 2 {
  %4 = alloca ptr, align 8
  %5 = alloca ptr, align 8
  %6 = alloca i32, align 4
  store ptr %0, ptr %4, align 8, !tbaa !4
  store ptr %1, ptr %5, align 8, !tbaa !18
  store i32 %2, ptr %6, align 4, !tbaa !11
  %7 = load ptr, ptr %4, align 8
  %8 = load ptr, ptr %5, align 8, !tbaa !18
  %9 = call noundef nonnull align 8 dereferenceable(8) ptr @_ZNKSt3__110error_code8categoryB8ne210000Ev(ptr noundef nonnull align 8 dereferenceable(16) %8) #5
  %10 = call noundef zeroext i1 @_ZNKSt3__114error_categoryeqB8ne210000ERKS0_(ptr noundef nonnull align 8 dereferenceable(8) %7, ptr noundef nonnull align 8 dereferenceable(8) %9) #5
  br i1 %10, label %11, label %16

11:                                               ; preds = %3
  %12 = load ptr, ptr %5, align 8, !tbaa !18
  %13 = call noundef i32 @_ZNKSt3__110error_code5valueB8ne210000Ev(ptr noundef nonnull align 8 dereferenceable(16) %12) #5
  %14 = load i32, ptr %6, align 4, !tbaa !11
  %15 = icmp eq i32 %13, %14
  br label %16

16:                                               ; preds = %11, %3
  %17 = phi i1 [ false, %3 ], [ %15, %11 ]
  ret i1 %17
}

; Function Attrs: mustprogress nounwind uwtable
define linkonce_odr hidden noundef zeroext i1 @_ZNKSt3__114error_categoryeqB8ne210000ERKS0_(ptr noundef nonnull align 8 dereferenceable(8) %0, ptr noundef nonnull align 8 dereferenceable(8) %1) #0 comdat align 2 {
  %3 = alloca ptr, align 8
  %4 = alloca ptr, align 8
  store ptr %0, ptr %3, align 8, !tbaa !4
  store ptr %1, ptr %4, align 8, !tbaa !4
  %5 = load ptr, ptr %3, align 8
  %6 = load ptr, ptr %4, align 8, !tbaa !4
  %7 = icmp eq ptr %5, %6
  ret i1 %7
}

; Function Attrs: mustprogress nounwind uwtable
define linkonce_odr hidden noundef nonnull align 8 dereferenceable(8) ptr @_ZNKSt3__110error_code8categoryB8ne210000Ev(ptr noundef nonnull align 8 dereferenceable(16) %0) #0 comdat align 2 {
  %2 = alloca ptr, align 8
  store ptr %0, ptr %2, align 8, !tbaa !18
  %3 = load ptr, ptr %2, align 8
  %4 = getelementptr inbounds nuw %"class.std::__1::error_code", ptr %3, i32 0, i32 1
  %5 = load ptr, ptr %4, align 8, !tbaa !20
  ret ptr %5
}

; Function Attrs: mustprogress nounwind uwtable
define linkonce_odr hidden noundef i32 @_ZNKSt3__110error_code5valueB8ne210000Ev(ptr noundef nonnull align 8 dereferenceable(16) %0) #0 comdat align 2 {
  %2 = alloca ptr, align 8
  store ptr %0, ptr %2, align 8, !tbaa !18
  %3 = load ptr, ptr %2, align 8
  %4 = getelementptr inbounds nuw %"class.std::__1::error_code", ptr %3, i32 0, i32 0
  %5 = load i32, ptr %4, align 8, !tbaa !22
  ret i32 %5
}

declare void @__cxa_pure_virtual() unnamed_addr

; Function Attrs: mustprogress nounwind uwtable
define linkonce_odr hidden noundef nonnull align 8 dereferenceable(8) ptr @_ZNKSt3__115error_condition8categoryB8ne210000Ev(ptr noundef nonnull align 8 dereferenceable(16) %0) #0 comdat align 2 {
  %2 = alloca ptr, align 8
  store ptr %0, ptr %2, align 8, !tbaa !13
  %3 = load ptr, ptr %2, align 8
  %4 = getelementptr inbounds nuw %"class.std::__1::error_condition", ptr %3, i32 0, i32 1
  %5 = load ptr, ptr %4, align 8, !tbaa !17
  ret ptr %5
}

; Function Attrs: mustprogress nounwind uwtable
define linkonce_odr hidden noundef i32 @_ZNKSt3__115error_condition5valueB8ne210000Ev(ptr noundef nonnull align 8 dereferenceable(16) %0) #0 comdat align 2 {
  %2 = alloca ptr, align 8
  store ptr %0, ptr %2, align 8, !tbaa !13
  %3 = load ptr, ptr %2, align 8
  %4 = getelementptr inbounds nuw %"class.std::__1::error_condition", ptr %3, i32 0, i32 0
  %5 = load i32, ptr %4, align 8, !tbaa !15
  ret i32 %5
}


!llvm.linker.options = !{}
!llvm.module.flags = !{!0, !1, !2, !3}

!0 = !{i32 1, !"wchar_size", i32 4}
!1 = !{i32 8, !"PIC Level", i32 2}
!2 = !{i32 7, !"PIE Level", i32 2}
!3 = !{i32 7, !"uwtable", i32 2}
!4 = !{!5, !5, i64 0}
!5 = !{!"p1 _ZTSNSt3__114error_categoryE", !6, i64 0}
!6 = !{!"any pointer", !7, i64 0}
!7 = !{!"omnipotent char", !8, i64 0}
!8 = !{!"Simple C++ TBAA"}
!9 = !{!10, !10, i64 0}
!10 = !{!"vtable pointer", !8, i64 0}
!11 = !{!12, !12, i64 0}
!12 = !{!"int", !7, i64 0}
!13 = !{!14, !14, i64 0}
!14 = !{!"p1 _ZTSNSt3__115error_conditionE", !6, i64 0}
!15 = !{!16, !12, i64 0}
!16 = !{!"_ZTSNSt3__115error_conditionE", !12, i64 0, !5, i64 8}
!17 = !{!16, !5, i64 8}
!18 = !{!19, !19, i64 0}
!19 = !{!"p1 _ZTSNSt3__110error_codeE", !6, i64 0}
!20 = !{!21, !5, i64 8}
!21 = !{!"_ZTSNSt3__110error_codeE", !12, i64 0, !5, i64 8}
!22 = !{!21, !12, i64 0}
