; ModuleID = 'bench/libcxx/original/error_category.ll'
source_filename = "bench/libcxx/original/error_category.ll"
target datalayout = "e-m:e-p270:32:32-p271:32:32-p272:64:64-i64:64-i128:128-f80:128-n8:16:32:64-S128"
target triple = "x86_64-pc-linux-gnu"

@_ZTVNSt3__114error_categoryE = dso_local unnamed_addr constant { [9 x ptr] } { [9 x ptr] [ptr null, ptr @_ZTINSt3__114error_categoryE, ptr @_ZNSt3__114error_categoryD2Ev, ptr @_ZNSt3__114error_categoryD0Ev, ptr @__cxa_pure_virtual, ptr @_ZNKSt3__114error_category23default_error_conditionEi, ptr @_ZNKSt3__114error_category10equivalentEiRKNS_15error_conditionE, ptr @_ZNKSt3__114error_category10equivalentERKNS_10error_codeEi, ptr @__cxa_pure_virtual] }, align 8
@_ZTINSt3__114error_categoryE = dso_local constant { ptr, ptr } { ptr getelementptr inbounds (ptr, ptr @_ZTVN10__cxxabiv117__class_type_infoE, i64 2), ptr @_ZTSNSt3__114error_categoryE }, align 8
@_ZTVN10__cxxabiv117__class_type_infoE = external global [0 x ptr]
@_ZTSNSt3__114error_categoryE = dso_local constant [25 x i8] c"NSt3__114error_categoryE\00", align 1

@_ZNSt3__114error_categoryD1Ev = dso_local unnamed_addr alias void (ptr), ptr @_ZNSt3__114error_categoryD2Ev

; Function Attrs: mustprogress nofree norecurse nosync nounwind willreturn memory(argmem: write) uwtable
define dso_local void @_ZNSt3__114error_categoryC2Ev(ptr noundef nonnull writeonly align 8 captures(none) dereferenceable(8) initializes((0, 8)) %0) unnamed_addr #0 align 2 {
  store ptr getelementptr inbounds nuw inrange(-16, 56) (i8, ptr @_ZTVNSt3__114error_categoryE, i64 16), ptr %0, align 8, !tbaa !4
  ret void
}

; Function Attrs: mustprogress nofree norecurse nosync nounwind willreturn memory(none) uwtable
define dso_local void @_ZNSt3__114error_categoryD2Ev(ptr nonnull readnone align 8 captures(none) %0) unnamed_addr #1 align 2 {
  ret void
}

; Function Attrs: cold mustprogress noreturn nounwind memory(inaccessiblemem: write) uwtable
define dso_local void @_ZNSt3__114error_categoryD0Ev(ptr nonnull readnone align 8 captures(none) %0) unnamed_addr #2 align 2 {
  tail call void @llvm.trap() #6
  unreachable
}

; Function Attrs: cold noreturn nounwind memory(inaccessiblemem: write)
declare void @llvm.trap() #3

; Function Attrs: mustprogress nofree norecurse nosync nounwind willreturn memory(none) uwtable
define dso_local { i32, ptr } @_ZNKSt3__114error_category23default_error_conditionEi(ptr noundef nonnull align 8 dereferenceable(8) %0, i32 noundef %1) unnamed_addr #1 align 2 {
  %.fca.0.insert = insertvalue { i32, ptr } poison, i32 %1, 0
  %.fca.1.insert = insertvalue { i32, ptr } %.fca.0.insert, ptr %0, 1
  ret { i32, ptr } %.fca.1.insert
}

; Function Attrs: mustprogress nounwind uwtable
define dso_local noundef zeroext i1 @_ZNKSt3__114error_category10equivalentEiRKNS_15error_conditionE(ptr noundef nonnull align 8 dereferenceable(8) %0, i32 noundef %1, ptr noundef nonnull readonly align 8 captures(none) dereferenceable(16) %2) unnamed_addr #4 align 2 {
  %4 = load ptr, ptr %0, align 8, !tbaa !4
  %5 = getelementptr inbounds nuw i8, ptr %4, i64 24
  %6 = load ptr, ptr %5, align 8
  %7 = tail call { i32, ptr } %6(ptr noundef nonnull align 8 dereferenceable(8) %0, i32 noundef %1) #7
  %8 = extractvalue { i32, ptr } %7, 0
  %9 = extractvalue { i32, ptr } %7, 1
  %10 = getelementptr inbounds nuw i8, ptr %2, i64 8
  %11 = load ptr, ptr %10, align 8, !tbaa !7
  %12 = icmp eq ptr %9, %11
  %13 = load i32, ptr %2, align 8
  %14 = icmp eq i32 %8, %13
  %15 = select i1 %12, i1 %14, i1 false
  ret i1 %15
}

; Function Attrs: mustprogress nofree norecurse nosync nounwind willreturn memory(argmem: read) uwtable
define dso_local noundef zeroext i1 @_ZNKSt3__114error_category10equivalentERKNS_10error_codeEi(ptr noundef nonnull readnone align 8 captures(address) dereferenceable(8) %0, ptr noundef nonnull readonly align 8 captures(none) dereferenceable(16) %1, i32 noundef %2) unnamed_addr #5 align 2 {
  %4 = getelementptr inbounds nuw i8, ptr %1, i64 8
  %5 = load ptr, ptr %4, align 8, !tbaa !13
  %6 = icmp eq ptr %0, %5
  %7 = load i32, ptr %1, align 8
  %8 = icmp eq i32 %7, %2
  %9 = select i1 %6, i1 %8, i1 false
  ret i1 %9
}

declare void @__cxa_pure_virtual() unnamed_addr


!llvm.linker.options = !{}
!llvm.module.flags = !{!0, !1, !2, !3}

!0 = !{i32 1, !"wchar_size", i32 4}
!1 = !{i32 8, !"PIC Level", i32 2}
!2 = !{i32 7, !"PIE Level", i32 2}
!3 = !{i32 7, !"uwtable", i32 2}
!4 = !{!5, !5, i64 0}
!5 = !{!"vtable pointer", !6, i64 0}
!6 = !{!"Simple C++ TBAA"}
!7 = !{!8, !11, i64 8}
!8 = !{!"_ZTSNSt3__115error_conditionE", !9, i64 0, !11, i64 8}
!9 = !{!"int", !10, i64 0}
!10 = !{!"omnipotent char", !6, i64 0}
!11 = !{!"p1 _ZTSNSt3__114error_categoryE", !12, i64 0}
!12 = !{!"any pointer", !10, i64 0}
!13 = !{!14, !11, i64 8}
!14 = !{!"_ZTSNSt3__110error_codeE", !9, i64 0, !11, i64 8}
